; Function Attrs: nofree norecurse nosync nounwind memory(argmem: read) uwtable
define range(i32 -1, 2) i32 @sp_cmp(ptr noundef readonly captures(address) %0, ptr noundef readonly captures(address) %1) local_unnamed_addr #9 {
  %3 = icmp eq ptr %0, %1
  br i1 %3, label %_sp_cmp.exit, label %4

4:                                                ; preds = %2
  %5 = icmp eq ptr %0, null
  br i1 %5, label %_sp_cmp.exit, label %6

6:                                                ; preds = %4
  %7 = icmp eq ptr %1, null
  br i1 %7, label %_sp_cmp.exit, label %8

8:                                                ; preds = %6
  %9 = load i16, ptr %0, align 8, !tbaa !12
  %10 = load i16, ptr %1, align 8, !tbaa !12
  %11 = icmp ugt i16 %9, %10
  br i1 %11, label %_sp_cmp.exit, label %12

12:                                               ; preds = %8
  %13 = icmp ult i16 %9, %10
  br i1 %13, label %_sp_cmp.exit, label %.preheader.i.i

.preheader.i.i:                                   ; preds = %12
  %14 = getelementptr inbounds nuw i8, ptr %0, i64 8
  %15 = getelementptr inbounds nuw i8, ptr %1, i64 8
  %16 = zext i16 %9 to i64
  br label %17

17:                                               ; preds = %25, %.preheader.i.i
  %indvars.iv.i.i = phi i64 [ %16, %.preheader.i.i ], [ %indvars.iv.next.i.i, %25 ]
  %indvars.iv.next.i.i = add nsw i64 %indvars.iv.i.i, -1
  %18 = icmp sgt i64 %indvars.iv.i.i, 0
  br i1 %18, label %19, label %_sp_cmp.exit

19:                                               ; preds = %17
  %20 = getelementptr inbounds nuw [129 x i64], ptr %14, i64 0, i64 %indvars.iv.next.i.i
  %21 = load i64, ptr %20, align 8, !tbaa !8
  %22 = getelementptr inbounds nuw [129 x i64], ptr %15, i64 0, i64 %indvars.iv.next.i.i
  %23 = load i64, ptr %22, align 8, !tbaa !8
  %24 = icmp ugt i64 %21, %23
  br i1 %24, label %_sp_cmp.exit, label %25

25:                                               ; preds = %19
  %26 = icmp ult i64 %21, %23
  br i1 %26, label %_sp_cmp.exit, label %17, !llvm.loop !21

_sp_cmp.exit:                                     ; preds = %25, %19, %17, %12, %8, %6, %4, %2
  %.0 = phi i32 [ 0, %2 ], [ -1, %4 ], [ 1, %6 ], [ 1, %8 ], [ -1, %12 ], [ -1, %25 ], [ 1, %19 ], [ 0, %17 ]
  ret i32 %.0
}